target datalayout = "e-m:e-p270:32:32-p271:32:32-p272:64:64-i64:64-i128:128-f80:128-n8:16:32:64-S128"
target triple = "x86_64-pc-linux-gnu"

%struct.blockProperties_t = type { i32, i32 }

; Function Attrs: nounwind uwtable
define internal i32 @ERR_isError(i64 noundef %0) #0 {
  %2 = alloca i64, align 8
  store i64 %0, ptr %2, align 8, !tbaa !3
  %3 = load i64, ptr %2, align 8, !tbaa !3
  %4 = icmp ugt i64 %3, -120
  %5 = zext i1 %4 to i32
  ret i32 %5
}

; Function Attrs: nounwind uwtable
define i32 @ZSTDv01_isError(i64 noundef %0) #0 {
  %2 = alloca i64, align 8
  store i64 %0, ptr %2, align 8, !tbaa !3
  %3 = load i64, ptr %2, align 8, !tbaa !3
  %4 = call i32 @ERR_isError(i64 noundef %3)
  ret i32 %4
}

; Function Attrs: nounwind uwtable
define internal i64 @ZSTDv01_getcBlockSize(ptr noundef %0, i64 noundef %1, ptr noundef %2) #0 {
  %4 = alloca i64, align 8
  %5 = alloca ptr, align 8
  %6 = alloca i64, align 8
  %7 = alloca ptr, align 8
  %8 = alloca ptr, align 8
  %9 = alloca i8, align 1
  %10 = alloca i32, align 4
  %11 = alloca i32, align 4
  store ptr %0, ptr %5, align 8, !tbaa !7
  store i64 %1, ptr %6, align 8, !tbaa !3
  store ptr %2, ptr %7, align 8, !tbaa !7
  call void @llvm.lifetime.start.p0(i64 8, ptr %8) #8
  %12 = load ptr, ptr %5, align 8, !tbaa !7
  store ptr %12, ptr %8, align 8, !tbaa !9
  call void @llvm.lifetime.start.p0(i64 1, ptr %9) #8
  call void @llvm.lifetime.start.p0(i64 4, ptr %10) #8
  %13 = load i64, ptr %6, align 8, !tbaa !3
  %14 = icmp ult i64 %13, 3
  br i1 %14, label %15, label %16

15:                                               ; preds = %3
  store i64 -72, ptr %4, align 8
  store i32 1, ptr %11, align 4
  br label %66

16:                                               ; preds = %3
  %17 = load ptr, ptr %8, align 8, !tbaa !9
  %18 = load i8, ptr %17, align 1, !tbaa !15
  store i8 %18, ptr %9, align 1, !tbaa !15
  %19 = load ptr, ptr %8, align 8, !tbaa !9
  %20 = getelementptr inbounds i8, ptr %19, i64 2
  %21 = load i8, ptr %20, align 1, !tbaa !15
  %22 = zext i8 %21 to i32
  %23 = load ptr, ptr %8, align 8, !tbaa !9
  %24 = getelementptr inbounds i8, ptr %23, i64 1
  %25 = load i8, ptr %24, align 1, !tbaa !15
  %26 = zext i8 %25 to i32
  %27 = shl i32 %26, 8
  %28 = add nsw i32 %22, %27
  %29 = load ptr, ptr %8, align 8, !tbaa !9
  %30 = getelementptr inbounds i8, ptr %29, i64 0
  %31 = load i8, ptr %30, align 1, !tbaa !15
  %32 = zext i8 %31 to i32
  %33 = and i32 %32, 7
  %34 = shl i32 %33, 16
  %35 = add nsw i32 %28, %34
  store i32 %35, ptr %10, align 4, !tbaa !11
  %36 = load i8, ptr %9, align 1, !tbaa !15
  %37 = zext i8 %36 to i32
  %38 = ashr i32 %37, 6
  %39 = load ptr, ptr %7, align 8, !tbaa !7
  %40 = getelementptr inbounds nuw %struct.blockProperties_t, ptr %39, i32 0, i32 0
  store i32 %38, ptr %40, align 4, !tbaa !13
  %41 = load ptr, ptr %7, align 8, !tbaa !7
  %42 = getelementptr inbounds nuw %struct.blockProperties_t, ptr %41, i32 0, i32 0
  %43 = load i32, ptr %42, align 4, !tbaa !13
  %44 = icmp eq i32 %43, 2
  br i1 %44, label %45, label %47

45:                                               ; preds = %16
  %46 = load i32, ptr %10, align 4, !tbaa !11
  br label %48

47:                                               ; preds = %16
  br label %48

48:                                               ; preds = %47, %45
  %49 = phi i32 [ %46, %45 ], [ 0, %47 ]
  %50 = load ptr, ptr %7, align 8, !tbaa !7
  %51 = getelementptr inbounds nuw %struct.blockProperties_t, ptr %50, i32 0, i32 1
  store i32 %49, ptr %51, align 4, !tbaa !16
  %52 = load ptr, ptr %7, align 8, !tbaa !7
  %53 = getelementptr inbounds nuw %struct.blockProperties_t, ptr %52, i32 0, i32 0
  %54 = load i32, ptr %53, align 4, !tbaa !13
  %55 = icmp eq i32 %54, 3
  br i1 %55, label %56, label %57

56:                                               ; preds = %48
  store i64 0, ptr %4, align 8
  store i32 1, ptr %11, align 4
  br label %66

57:                                               ; preds = %48
  %58 = load ptr, ptr %7, align 8, !tbaa !7
  %59 = getelementptr inbounds nuw %struct.blockProperties_t, ptr %58, i32 0, i32 0
  %60 = load i32, ptr %59, align 4, !tbaa !13
  %61 = icmp eq i32 %60, 2
  br i1 %61, label %62, label %63

62:                                               ; preds = %57
  store i64 1, ptr %4, align 8
  store i32 1, ptr %11, align 4
  br label %66

63:                                               ; preds = %57
  %64 = load i32, ptr %10, align 4, !tbaa !11
  %65 = zext i32 %64 to i64
  store i64 %65, ptr %4, align 8
  store i32 1, ptr %11, align 4
  br label %66

66:                                               ; preds = %63, %62, %56, %15
  call void @llvm.lifetime.end.p0(i64 4, ptr %10) #8
  call void @llvm.lifetime.end.p0(i64 1, ptr %9) #8
  call void @llvm.lifetime.end.p0(i64 8, ptr %8) #8
  %67 = load i64, ptr %4, align 8
  ret i64 %67
}

; Function Attrs: nounwind uwtable
define internal i32 @ZSTD_readBE32(ptr noundef %0) #0 {
  %2 = alloca ptr, align 8
  %3 = alloca ptr, align 8
  store ptr %0, ptr %2, align 8, !tbaa !7
  call void @llvm.lifetime.start.p0(i64 8, ptr %3) #8
  %4 = load ptr, ptr %2, align 8, !tbaa !7
  store ptr %4, ptr %3, align 8, !tbaa !9
  %5 = load ptr, ptr %3, align 8, !tbaa !9
  %6 = getelementptr inbounds i8, ptr %5, i64 0
  %7 = load i8, ptr %6, align 1, !tbaa !15
  %8 = zext i8 %7 to i32
  %9 = shl i32 %8, 24
  %10 = load ptr, ptr %3, align 8, !tbaa !9
  %11 = getelementptr inbounds i8, ptr %10, i64 1
  %12 = load i8, ptr %11, align 1, !tbaa !15
  %13 = zext i8 %12 to i32
  %14 = shl i32 %13, 16
  %15 = add i32 %9, %14
  %16 = load ptr, ptr %3, align 8, !tbaa !9
  %17 = getelementptr inbounds i8, ptr %16, i64 2
  %18 = load i8, ptr %17, align 1, !tbaa !15
  %19 = zext i8 %18 to i32
  %20 = shl i32 %19, 8
  %21 = add i32 %15, %20
  %22 = load ptr, ptr %3, align 8, !tbaa !9
  %23 = getelementptr inbounds i8, ptr %22, i64 3
  %24 = load i8, ptr %23, align 1, !tbaa !15
  %25 = zext i8 %24 to i32
  %26 = shl i32 %25, 0
  %27 = add i32 %21, %26
  call void @llvm.lifetime.end.p0(i64 8, ptr %3) #8
  ret i32 %27
}

; Function Attrs: nounwind uwtable
define internal void @ZSTD_errorFrameSizeInfoLegacy(ptr noundef %0, ptr noundef %1, i64 noundef %2) #0 {
  %4 = alloca ptr, align 8
  %5 = alloca ptr, align 8
  %6 = alloca i64, align 8
  store ptr %0, ptr %4, align 8, !tbaa !19
  store ptr %1, ptr %5, align 8, !tbaa !21
  store i64 %2, ptr %6, align 8, !tbaa !3
  %7 = load i64, ptr %6, align 8, !tbaa !3
  %8 = load ptr, ptr %4, align 8, !tbaa !19
  store i64 %7, ptr %8, align 8, !tbaa !3
  %9 = load ptr, ptr %5, align 8, !tbaa !21
  store i64 -2, ptr %9, align 8, !tbaa !23
  ret void
}

; Function Attrs: nounwind uwtable
define void @ZSTDv01_findFrameSizeInfoLegacy(ptr noundef %0, i64 noundef %1, ptr noundef %2, ptr noundef %3) #0 {
  %5 = alloca ptr, align 8
  %6 = alloca i64, align 8
  %7 = alloca ptr, align 8
  %8 = alloca ptr, align 8
  %9 = alloca ptr, align 8
  %10 = alloca i64, align 8
  %11 = alloca i64, align 8
  %12 = alloca i32, align 4
  %13 = alloca %struct.blockProperties_t, align 4
  %14 = alloca i32, align 4
  %15 = alloca i64, align 8
  store ptr %0, ptr %5, align 8, !tbaa !7
  store i64 %1, ptr %6, align 8, !tbaa !3
  store ptr %2, ptr %7, align 8, !tbaa !19
  store ptr %3, ptr %8, align 8, !tbaa !21
  call void @llvm.lifetime.start.p0(i64 8, ptr %9) #8
  %16 = load ptr, ptr %5, align 8, !tbaa !7
  store ptr %16, ptr %9, align 8, !tbaa !9
  call void @llvm.lifetime.start.p0(i64 8, ptr %10) #8
  %17 = load i64, ptr %6, align 8, !tbaa !3
  store i64 %17, ptr %10, align 8, !tbaa !3
  call void @llvm.lifetime.start.p0(i64 8, ptr %11) #8
  store i64 0, ptr %11, align 8, !tbaa !3
  call void @llvm.lifetime.start.p0(i64 4, ptr %12) #8
  call void @llvm.lifetime.start.p0(i64 8, ptr %13) #8
  %18 = load i64, ptr %6, align 8, !tbaa !3
  %19 = icmp ult i64 %18, 7
  br i1 %19, label %20, label %23

20:                                               ; preds = %4
  %21 = load ptr, ptr %7, align 8, !tbaa !19
  %22 = load ptr, ptr %8, align 8, !tbaa !21
  call void @ZSTD_errorFrameSizeInfoLegacy(ptr noundef %21, ptr noundef %22, i64 noundef -72)
  store i32 1, ptr %14, align 4
  br label %85

23:                                               ; preds = %4
  %24 = load ptr, ptr %5, align 8, !tbaa !7
  %25 = call i32 @ZSTD_readBE32(ptr noundef %24)
  store i32 %25, ptr %12, align 4, !tbaa !11
  %26 = load i32, ptr %12, align 4, !tbaa !11
  %27 = icmp ne i32 %26, -47205090
  br i1 %27, label %28, label %31

28:                                               ; preds = %23
  %29 = load ptr, ptr %7, align 8, !tbaa !19
  %30 = load ptr, ptr %8, align 8, !tbaa !21
  call void @ZSTD_errorFrameSizeInfoLegacy(ptr noundef %29, ptr noundef %30, i64 noundef -10)
  store i32 1, ptr %14, align 4
  br label %85

31:                                               ; preds = %23
  %32 = load ptr, ptr %9, align 8, !tbaa !9
  %33 = getelementptr inbounds nuw i8, ptr %32, i64 4
  store ptr %33, ptr %9, align 8, !tbaa !9
  %34 = load i64, ptr %10, align 8, !tbaa !3
  %35 = sub i64 %34, 4
  store i64 %35, ptr %10, align 8, !tbaa !3
  br label %36

36:                                               ; preds = %74, %31
  br label %37

37:                                               ; preds = %36
  call void @llvm.lifetime.start.p0(i64 8, ptr %15) #8
  %38 = load ptr, ptr %9, align 8, !tbaa !9
  %39 = load i64, ptr %10, align 8, !tbaa !3
  %40 = call i64 @ZSTDv01_getcBlockSize(ptr noundef %38, i64 noundef %39, ptr noundef %13)
  store i64 %40, ptr %15, align 8, !tbaa !3
  %41 = load i64, ptr %15, align 8, !tbaa !3
  %42 = call i32 @ZSTDv01_isError(i64 noundef %41)
  %43 = icmp ne i32 %42, 0
  br i1 %43, label %44, label %48

44:                                               ; preds = %37
  %45 = load ptr, ptr %7, align 8, !tbaa !19
  %46 = load ptr, ptr %8, align 8, !tbaa !21
  %47 = load i64, ptr %15, align 8, !tbaa !3
  call void @ZSTD_errorFrameSizeInfoLegacy(ptr noundef %45, ptr noundef %46, i64 noundef %47)
  store i32 1, ptr %14, align 4
  br label %72

48:                                               ; preds = %37
  %49 = load ptr, ptr %9, align 8, !tbaa !9
  %50 = getelementptr inbounds nuw i8, ptr %49, i64 3
  store ptr %50, ptr %9, align 8, !tbaa !9
  %51 = load i64, ptr %10, align 8, !tbaa !3
  %52 = sub i64 %51, 3
  store i64 %52, ptr %10, align 8, !tbaa !3
  %53 = load i64, ptr %15, align 8, !tbaa !3
  %54 = load i64, ptr %10, align 8, !tbaa !3
  %55 = icmp ugt i64 %53, %54
  br i1 %55, label %56, label %59

56:                                               ; preds = %48
  %57 = load ptr, ptr %7, align 8, !tbaa !19
  %58 = load ptr, ptr %8, align 8, !tbaa !21
  call void @ZSTD_errorFrameSizeInfoLegacy(ptr noundef %57, ptr noundef %58, i64 noundef -72)
  store i32 1, ptr %14, align 4
  br label %72

59:                                               ; preds = %48
  %60 = load i64, ptr %15, align 8, !tbaa !3
  %61 = icmp eq i64 %60, 0
  br i1 %61, label %62, label %63

62:                                               ; preds = %59
  store i32 3, ptr %14, align 4
  br label %72

63:                                               ; preds = %59
  %64 = load i64, ptr %15, align 8, !tbaa !3
  %65 = load ptr, ptr %9, align 8, !tbaa !9
  %66 = getelementptr inbounds nuw i8, ptr %65, i64 %64
  store ptr %66, ptr %9, align 8, !tbaa !9
  %67 = load i64, ptr %15, align 8, !tbaa !3
  %68 = load i64, ptr %10, align 8, !tbaa !3
  %69 = sub i64 %68, %67
  store i64 %69, ptr %10, align 8, !tbaa !3
  %70 = load i64, ptr %11, align 8, !tbaa !3
  %71 = add i64 %70, 1
  store i64 %71, ptr %11, align 8, !tbaa !3
  store i32 0, ptr %14, align 4
  br label %72

72:                                               ; preds = %63, %62, %56, %44
  call void @llvm.lifetime.end.p0(i64 8, ptr %15) #8
  %73 = load i32, ptr %14, align 4
  switch i32 %73, label %85 [
    i32 0, label %74
    i32 3, label %75
  ]

74:                                               ; preds = %72
  br label %36

75:                                               ; preds = %72
  %76 = load ptr, ptr %9, align 8, !tbaa !9
  %77 = load ptr, ptr %5, align 8, !tbaa !7
  %78 = ptrtoint ptr %76 to i64
  %79 = ptrtoint ptr %77 to i64
  %80 = sub i64 %78, %79
  %81 = load ptr, ptr %7, align 8, !tbaa !19
  store i64 %80, ptr %81, align 8, !tbaa !3
  %82 = load i64, ptr %11, align 8, !tbaa !3
  %83 = mul i64 %82, 131072
  %84 = load ptr, ptr %8, align 8, !tbaa !21
  store i64 %83, ptr %84, align 8, !tbaa !23
  store i32 0, ptr %14, align 4
  br label %85

85:                                               ; preds = %75, %72, %28, %20
  call void @llvm.lifetime.end.p0(i64 8, ptr %13) #8
  call void @llvm.lifetime.end.p0(i64 4, ptr %12) #8
  call void @llvm.lifetime.end.p0(i64 8, ptr %11) #8
  call void @llvm.lifetime.end.p0(i64 8, ptr %10) #8
  call void @llvm.lifetime.end.p0(i64 8, ptr %9) #8
  %86 = load i32, ptr %14, align 4
  switch i32 %86, label %88 [
    i32 0, label %87
    i32 1, label %87
  ]

87:                                               ; preds = %85, %85
  ret void

88:                                               ; preds = %85
  unreachable
}