; Function Attrs: nofree norecurse nosync nounwind memory(argmem: readwrite) uwtable
define void @ZSTDv01_findFrameSizeInfoLegacy(ptr noundef %0, i64 noundef %1, ptr noundef writeonly captures(none) %2, ptr noundef writeonly captures(none) %3) local_unnamed_addr #3 {
  %5 = icmp ult i64 %1, 7
  br i1 %5, label %6, label %7

6:                                                ; preds = %4
  store i64 -72, ptr %2, align 8, !tbaa !42
  br label %.thread51

7:                                                ; preds = %4
  %8 = load i8, ptr %0, align 1, !tbaa !3
  %9 = zext i8 %8 to i32
  %10 = shl nuw i32 %9, 24
  %11 = getelementptr inbounds nuw i8, ptr %0, i64 1
  %12 = load i8, ptr %11, align 1, !tbaa !3
  %13 = zext i8 %12 to i32
  %14 = shl nuw nsw i32 %13, 16
  %15 = or disjoint i32 %14, %10
  %16 = getelementptr inbounds nuw i8, ptr %0, i64 2
  %17 = load i8, ptr %16, align 1, !tbaa !3
  %18 = zext i8 %17 to i32
  %19 = shl nuw nsw i32 %18, 8
  %20 = or disjoint i32 %15, %19
  %21 = getelementptr inbounds nuw i8, ptr %0, i64 3
  %22 = load i8, ptr %21, align 1, !tbaa !3
  %23 = zext i8 %22 to i32
  %24 = or disjoint i32 %20, %23
  %.not = icmp eq i32 %24, -47205090
  br i1 %.not, label %.lr.ph.preheader, label %25

25:                                               ; preds = %7
  store i64 -10, ptr %2, align 8, !tbaa !42
  br label %.thread51

.lr.ph.preheader:                                 ; preds = %7
  %26 = add i64 %1, -4
  %27 = getelementptr inbounds nuw i8, ptr %0, i64 4
  br label %.lr.ph

.lr.ph:                                           ; preds = %.lr.ph.preheader, %.thread86
  %.074 = phi ptr [ %53, %.thread86 ], [ %27, %.lr.ph.preheader ]
  %.03573 = phi i64 [ %54, %.thread86 ], [ %26, %.lr.ph.preheader ]
  %.03772 = phi i64 [ %55, %.thread86 ], [ 0, %.lr.ph.preheader ]
  %28 = load i8, ptr %.074, align 1, !tbaa !3
  %29 = zext i8 %28 to i32
  %30 = lshr i32 %29, 6
  switch i32 %30, label %31 [
    i32 3, label %.loopexit
    i32 2, label %.thread
  ]

._crit_edge:                                      ; preds = %.thread86
  store i64 -72, ptr %2, align 8, !tbaa !42
  br label %.thread51

31:                                               ; preds = %.lr.ph
  %32 = shl nuw nsw i32 %29, 16
  %33 = and i32 %32, 458752
  %34 = getelementptr inbounds nuw i8, ptr %.074, i64 2
  %35 = load i8, ptr %34, align 1, !tbaa !3
  %36 = zext i8 %35 to i32
  %37 = or disjoint i32 %33, %36
  %38 = getelementptr inbounds nuw i8, ptr %.074, i64 1
  %39 = load i8, ptr %38, align 1, !tbaa !3
  %40 = zext i8 %39 to i32
  %41 = shl nuw nsw i32 %40, 8
  %42 = or disjoint i32 %41, %37
  %43 = zext nneg i32 %42 to i64
  %44 = add i64 %.03573, -3
  %45 = icmp ult i64 %44, %43
  br i1 %45, label %48, label %49

.thread:                                          ; preds = %.lr.ph
  %46 = add i64 %.03573, -3
  %47 = icmp eq i64 %46, 0
  br i1 %47, label %48, label %.thread86

48:                                               ; preds = %.thread, %31
  store i64 -72, ptr %2, align 8, !tbaa !42
  br label %.thread51

49:                                               ; preds = %31
  %50 = icmp eq i32 %42, 0
  br i1 %50, label %.loopexit, label %.thread86

.thread86:                                        ; preds = %.thread, %49
  %.0.i.ph8588 = phi i64 [ %43, %49 ], [ 1, %.thread ]
  %51 = phi i64 [ %44, %49 ], [ %46, %.thread ]
  %52 = getelementptr inbounds nuw i8, ptr %.074, i64 3
  %53 = getelementptr inbounds nuw i8, ptr %52, i64 %.0.i.ph8588
  %54 = sub i64 %51, %.0.i.ph8588
  %55 = add i64 %.03772, 1
  %56 = icmp ult i64 %54, 3
  br i1 %56, label %._crit_edge, label %.lr.ph

.loopexit:                                        ; preds = %49, %.lr.ph
  %.1.ph = getelementptr inbounds nuw i8, ptr %.074, i64 3
  %57 = ptrtoint ptr %.1.ph to i64
  %58 = ptrtoint ptr %0 to i64
  %59 = sub i64 %57, %58
  store i64 %59, ptr %2, align 8, !tbaa !42
  %60 = shl i64 %.03772, 17
  br label %.thread51

.thread51:                                        ; preds = %48, %._crit_edge, %.loopexit, %25, %6
  %.sink = phi i64 [ -2, %48 ], [ -2, %._crit_edge ], [ %60, %.loopexit ], [ -2, %25 ], [ -2, %6 ]
  store i64 %.sink, ptr %3, align 8, !tbaa !43
  ret void
}